target datalayout = "e-m:e-p270:32:32-p271:32:32-p272:64:64-i64:64-i128:128-f80:128-n8:16:32:64-S128"
target triple = "x86_64-unknown-linux-gnu"

%struct.rcu_head = type { ptr, ptr }
%struct.RAMBlock = type { %struct.rcu_head, ptr, ptr, ptr, i64, i64, i64, ptr, i32, [256 x i8], %struct.anon.14, %struct.anon.15, i32, i64, i64, ptr, ptr, ptr, i8, i64 }
%struct.anon.14 = type { ptr, ptr }
%struct.anon.15 = type { ptr }

@.str.1 = private unnamed_addr constant [25 x i8] c"../qemu/system/physmem.c\00", align 1
@qemu_host_page_size = external global i64, align 8
@.str.113 = private unnamed_addr constant [81 x i8] c"(ram_flags & ~(RAM_SHARED | RAM_RESIZEABLE | RAM_PREALLOC | RAM_NORESERVE)) == 0\00", align 1
@__PRETTY_FUNCTION__.qemu_ram_alloc_internal = private unnamed_addr constant [144 x i8] c"RAMBlock *qemu_ram_alloc_internal(ram_addr_t, ram_addr_t, void (*)(const char *, uint64_t, void *), void *, uint32_t, MemoryRegion *, Error **)\00", align 1
@.str.114 = private unnamed_addr constant [35 x i8] c"!host ^ (ram_flags & RAM_PREALLOC)\00", align 1
@.str.115 = private unnamed_addr constant [17 x i8] c"max_size >= size\00", align 1

; Function Attrs: nounwind sspstrong uwtable
define internal i64 @qemu_real_host_page_size() #0 {
entry:
  %call = call i32 @getpagesize() #19
  %conv = sext i32 %call to i64
  ret i64 %conv
}

; Function Attrs: nounwind sspstrong uwtable
define internal ptr @qemu_ram_alloc_internal(i64 noundef %size, i64 noundef %max_size, ptr noundef %resized, ptr noundef %host, i32 noundef %ram_flags, ptr noundef %mr, ptr noundef %errp) #0 {
entry:
  %retval = alloca ptr, align 8
  %size.addr = alloca i64, align 8
  %max_size.addr = alloca i64, align 8
  %resized.addr = alloca ptr, align 8
  %host.addr = alloca ptr, align 8
  %ram_flags.addr = alloca i32, align 4
  %mr.addr = alloca ptr, align 8
  %errp.addr = alloca ptr, align 8
  %new_block = alloca ptr, align 8
  %local_err = alloca ptr, align 8
  store i64 %size, ptr %size.addr, align 8
  store i64 %max_size, ptr %max_size.addr, align 8
  store ptr %resized, ptr %resized.addr, align 8
  store ptr %host, ptr %host.addr, align 8
  store i32 %ram_flags, ptr %ram_flags.addr, align 4
  store ptr %mr, ptr %mr.addr, align 8
  store ptr %errp, ptr %errp.addr, align 8
  store ptr null, ptr %local_err, align 8
  %0 = load i32, ptr %ram_flags.addr, align 4
  %and = and i32 %0, -136
  %cmp = icmp eq i32 %and, 0
  br i1 %cmp, label %if.then, label %if.else

if.then:                                          ; preds = %entry
  br label %if.end

if.else:                                          ; preds = %entry
  call void @__assert_fail(ptr noundef @.str.113, ptr noundef @.str.1, i32 noundef 2019, ptr noundef @__PRETTY_FUNCTION__.qemu_ram_alloc_internal) #13
  unreachable

if.end:                                           ; preds = %if.then
  %1 = load ptr, ptr %host.addr, align 8
  %tobool = icmp ne ptr %1, null
  %lnot = xor i1 %tobool, true
  %lnot.ext = zext i1 %lnot to i32
  %2 = load i32, ptr %ram_flags.addr, align 4
  %and1 = and i32 %2, 1
  %xor = xor i32 %lnot.ext, %and1
  %tobool2 = icmp ne i32 %xor, 0
  br i1 %tobool2, label %if.then3, label %if.else4

if.then3:                                         ; preds = %if.end
  br label %if.end5

if.else4:                                         ; preds = %if.end
  call void @__assert_fail(ptr noundef @.str.114, ptr noundef @.str.1, i32 noundef 2020, ptr noundef @__PRETTY_FUNCTION__.qemu_ram_alloc_internal) #13
  unreachable

if.end5:                                          ; preds = %if.then3
  %3 = load i64, ptr %size.addr, align 8
  %4 = load i64, ptr @qemu_host_page_size, align 8
  %add = add i64 %3, %4
  %sub = sub i64 %add, 1
  %5 = load i64, ptr @qemu_host_page_size, align 8
  %sub6 = sub i64 0, %5
  %and7 = and i64 %sub, %sub6
  store i64 %and7, ptr %size.addr, align 8
  %6 = load i64, ptr %max_size.addr, align 8
  %7 = load i64, ptr @qemu_host_page_size, align 8
  %add8 = add i64 %6, %7
  %sub9 = sub i64 %add8, 1
  %8 = load i64, ptr @qemu_host_page_size, align 8
  %sub10 = sub i64 0, %8
  %and11 = and i64 %sub9, %sub10
  store i64 %and11, ptr %max_size.addr, align 8
  %call = call noalias ptr @g_malloc0(i64 noundef 424) #17
  store ptr %call, ptr %new_block, align 8
  %9 = load ptr, ptr %mr.addr, align 8
  %10 = load ptr, ptr %new_block, align 8
  %mr12 = getelementptr inbounds %struct.RAMBlock, ptr %10, i32 0, i32 1
  store ptr %9, ptr %mr12, align 8
  %11 = load ptr, ptr %resized.addr, align 8
  %12 = load ptr, ptr %new_block, align 8
  %resized13 = getelementptr inbounds %struct.RAMBlock, ptr %12, i32 0, i32 7
  store ptr %11, ptr %resized13, align 8
  %13 = load i64, ptr %size.addr, align 8
  %14 = load ptr, ptr %new_block, align 8
  %used_length = getelementptr inbounds %struct.RAMBlock, ptr %14, i32 0, i32 5
  store i64 %13, ptr %used_length, align 8
  %15 = load i64, ptr %max_size.addr, align 8
  %16 = load ptr, ptr %new_block, align 8
  %max_length = getelementptr inbounds %struct.RAMBlock, ptr %16, i32 0, i32 6
  store i64 %15, ptr %max_length, align 8
  %17 = load i64, ptr %max_size.addr, align 8
  %18 = load i64, ptr %size.addr, align 8
  %cmp14 = icmp uge i64 %17, %18
  br i1 %cmp14, label %if.then15, label %if.else16

if.then15:                                        ; preds = %if.end5
  br label %if.end17

if.else16:                                        ; preds = %if.end5
  call void @__assert_fail(ptr noundef @.str.115, ptr noundef @.str.1, i32 noundef 2029, ptr noundef @__PRETTY_FUNCTION__.qemu_ram_alloc_internal) #13
  unreachable

if.end17:                                         ; preds = %if.then15
  %19 = load ptr, ptr %new_block, align 8
  %fd = getelementptr inbounds %struct.RAMBlock, ptr %19, i32 0, i32 12
  store i32 -1, ptr %fd, align 8
  %call18 = call i64 @qemu_real_host_page_size()
  %20 = load ptr, ptr %new_block, align 8
  %page_size = getelementptr inbounds %struct.RAMBlock, ptr %20, i32 0, i32 14
  store i64 %call18, ptr %page_size, align 8
  %21 = load ptr, ptr %host.addr, align 8
  %22 = load ptr, ptr %new_block, align 8
  %host19 = getelementptr inbounds %struct.RAMBlock, ptr %22, i32 0, i32 2
  store ptr %21, ptr %host19, align 8
  %23 = load i32, ptr %ram_flags.addr, align 4
  %24 = load ptr, ptr %new_block, align 8
  %flags = getelementptr inbounds %struct.RAMBlock, ptr %24, i32 0, i32 8
  store i32 %23, ptr %flags, align 8
  %25 = load ptr, ptr %new_block, align 8
  call void @ram_block_add(ptr noundef %25, ptr noundef %local_err)
  %26 = load ptr, ptr %local_err, align 8
  %tobool20 = icmp ne ptr %26, null
  br i1 %tobool20, label %if.then21, label %if.end22

if.then21:                                        ; preds = %if.end17
  %27 = load ptr, ptr %new_block, align 8
  call void @g_free(ptr noundef %27)
  %28 = load ptr, ptr %errp.addr, align 8
  %29 = load ptr, ptr %local_err, align 8
  call void @error_propagate(ptr noundef %28, ptr noundef %29)
  store ptr null, ptr %retval, align 8
  br label %return

if.end22:                                         ; preds = %if.end17
  %30 = load ptr, ptr %new_block, align 8
  store ptr %30, ptr %retval, align 8
  br label %return

return:                                           ; preds = %if.end22, %if.then21
  %31 = load ptr, ptr %retval, align 8
  ret ptr %31
}