; Function Attrs: nounwind sspstrong uwtable
define internal fastcc noundef ptr @qemu_ram_alloc_internal(i64 noundef %size, i64 noundef %max_size, ptr noundef %resized, ptr noundef %host, i32 noundef %ram_flags, ptr noundef %mr, ptr noundef %errp) unnamed_addr #0 {
entry:
  %local_err = alloca ptr, align 8
  store ptr null, ptr %local_err, align 8
  %and = and i32 %ram_flags, -136
  %cmp = icmp eq i32 %and, 0
  br i1 %cmp, label %if.end, label %if.else

if.else:                                          ; preds = %entry
  tail call void @__assert_fail(ptr noundef nonnull @.str.113, ptr noundef nonnull @.str.1, i32 noundef 2019, ptr noundef nonnull @__PRETTY_FUNCTION__.qemu_ram_alloc_internal) #27
  unreachable

if.end:                                           ; preds = %entry
  %0 = trunc i32 %ram_flags to i1
  %1 = icmp ne ptr %host, null
  %tobool2.not = xor i1 %1, %0
  br i1 %tobool2.not, label %if.else4, label %if.end5

if.else4:                                         ; preds = %if.end
  tail call void @__assert_fail(ptr noundef nonnull @.str.114, ptr noundef nonnull @.str.1, i32 noundef 2020, ptr noundef nonnull @__PRETTY_FUNCTION__.qemu_ram_alloc_internal) #27
  unreachable

if.end5:                                          ; preds = %if.end
  %2 = load i64, ptr @qemu_host_page_size, align 8
  %add = add i64 %size, -1
  %sub = add i64 %add, %2
  %sub6 = sub i64 0, %2
  %and7 = and i64 %sub, %sub6
  %add8 = add i64 %max_size, -1
  %sub9 = add i64 %add8, %2
  %and11 = and i64 %sub9, %sub6
  %call = tail call noalias dereferenceable_or_null(424) ptr @g_malloc0(i64 noundef 424) #31
  %mr12 = getelementptr inbounds nuw i8, ptr %call, i64 16
  store ptr %mr, ptr %mr12, align 8
  %resized13 = getelementptr inbounds nuw i8, ptr %call, i64 64
  store ptr %resized, ptr %resized13, align 8
  %used_length = getelementptr inbounds nuw i8, ptr %call, i64 48
  store i64 %and7, ptr %used_length, align 8
  %max_length = getelementptr inbounds nuw i8, ptr %call, i64 56
  store i64 %and11, ptr %max_length, align 8
  %cmp14.not = icmp ult i64 %and11, %and7
  br i1 %cmp14.not, label %if.else16, label %if.end17

if.else16:                                        ; preds = %if.end5
  tail call void @__assert_fail(ptr noundef nonnull @.str.115, ptr noundef nonnull @.str.1, i32 noundef 2029, ptr noundef nonnull @__PRETTY_FUNCTION__.qemu_ram_alloc_internal) #27
  unreachable

if.end17:                                         ; preds = %if.end5
  %fd = getelementptr inbounds nuw i8, ptr %call, i64 360
  store i32 -1, ptr %fd, align 8
  %call.i = tail call i32 @getpagesize() #33
  %conv.i = sext i32 %call.i to i64
  %page_size = getelementptr inbounds nuw i8, ptr %call, i64 376
  store i64 %conv.i, ptr %page_size, align 8
  %host19 = getelementptr inbounds nuw i8, ptr %call, i64 24
  store ptr %host, ptr %host19, align 8
  %flags = getelementptr inbounds nuw i8, ptr %call, i64 72
  store i32 %ram_flags, ptr %flags, align 8
  call fastcc void @ram_block_add(ptr noundef nonnull %call, ptr noundef %local_err)
  %3 = load ptr, ptr %local_err, align 8
  %tobool20.not = icmp eq ptr %3, null
  br i1 %tobool20.not, label %return, label %if.then21

if.then21:                                        ; preds = %if.end17
  call void @g_free(ptr noundef nonnull %call) #28
  %4 = load ptr, ptr %local_err, align 8
  call void @error_propagate(ptr noundef %errp, ptr noundef %4) #28
  br label %return

return:                                           ; preds = %if.end17, %if.then21
  %retval.0 = phi ptr [ null, %if.then21 ], [ %call, %if.end17 ]
  ret ptr %retval.0
}